; ModuleID = 'source-C-CXX/11/1393.cpp'
source_filename = "source-C-CXX/11/1393.cpp"
target datalayout = "e-m:e-p270:32:32-p271:32:32-p272:64:64-i64:64-f80:128-n8:16:32:64-S128"
target triple = "x86_64-pc-linux-gnu"

%"class.std::ios_base::Init" = type { i8 }
%"class.std::basic_istream" = type { i32 (...)**, i64, %"class.std::basic_ios" }
%"class.std::basic_ios" = type { %"class.std::ios_base", %"class.std::basic_ostream"*, i8, i8, %"class.std::basic_streambuf"*, %"class.std::ctype"*, %"class.std::num_put"*, %"class.std::num_get"* }
%"class.std::ios_base" = type { i32 (...)**, i64, i64, i32, i32, i32, %"struct.std::ios_base::_Callback_list"*, %"struct.std::ios_base::_Words", [8 x %"struct.std::ios_base::_Words"], i32, %"struct.std::ios_base::_Words"*, %"class.std::locale" }
%"struct.std::ios_base::_Callback_list" = type { %"struct.std::ios_base::_Callback_list"*, void (i32, %"class.std::ios_base"*, i32)*, i32, i32 }
%"struct.std::ios_base::_Words" = type { i8*, i64 }
%"class.std::locale" = type { %"class.std::locale::_Impl"* }
%"class.std::locale::_Impl" = type { i32, %"class.std::locale::facet"**, i64, %"class.std::locale::facet"**, i8** }
%"class.std::locale::facet" = type <{ i32 (...)**, i32, [4 x i8] }>
%"class.std::basic_ostream" = type { i32 (...)**, %"class.std::basic_ios" }
%"class.std::basic_streambuf" = type { i32 (...)**, i8*, i8*, i8*, i8*, i8*, i8*, %"class.std::locale" }
%"class.std::ctype" = type <{ %"class.std::locale::facet.base", [4 x i8], %struct.__locale_struct*, i8, [7 x i8], i32*, i32*, i16*, i8, [256 x i8], [256 x i8], i8, [6 x i8] }>
%"class.std::locale::facet.base" = type <{ i32 (...)**, i32 }>
%struct.__locale_struct = type { [13 x %struct.__locale_data*], i16*, i32*, i32*, [13 x i8*] }
%struct.__locale_data = type opaque
%"class.std::num_put" = type { %"class.std::locale::facet.base", [4 x i8] }
%"class.std::num_get" = type { %"class.std::locale::facet.base", [4 x i8] }

@_ZStL8__ioinit = internal global %"class.std::ios_base::Init" zeroinitializer, align 1
@__dso_handle = external hidden global i8
@_ZSt3cin = external global %"class.std::basic_istream", align 8
@_ZSt4cout = external global %"class.std::basic_ostream", align 8
@llvm.global_ctors = appending global [1 x { i32, void ()*, i8* }] [{ i32, void ()*, i8* } { i32 65535, void ()* @_GLOBAL__sub_I_1393.cpp, i8* null }]

declare void @_ZNSt8ios_base4InitC1Ev(%"class.std::ios_base::Init"* nonnull align 1 dereferenceable(1)) unnamed_addr #0

; Function Attrs: nounwind
declare void @_ZNSt8ios_base4InitD1Ev(%"class.std::ios_base::Init"* nonnull align 1 dereferenceable(1)) unnamed_addr #1

; Function Attrs: nofree nounwind
declare i32 @__cxa_atexit(void (i8*)*, i8*, i8*) local_unnamed_addr #2

; Function Attrs: mustprogress norecurse sspstrong uwtable
define dso_local i32 @main() local_unnamed_addr #3 {
  %1 = alloca [16 x i32], align 16
  %2 = alloca i32, align 4
  %3 = bitcast [16 x i32]* %1 to i8*
  call void @llvm.lifetime.start.p0i8(i64 64, i8* nonnull %3) #8
  %4 = bitcast i32* %2 to i8*
  call void @llvm.lifetime.start.p0i8(i64 4, i8* nonnull %4) #8
  %5 = call nonnull align 8 dereferenceable(16) %"class.std::basic_istream"* @_ZNSirsERi(%"class.std::basic_istream"* nonnull align 8 dereferenceable(16) @_ZSt3cin, i32* nonnull align 4 dereferenceable(4) %2)
  %6 = bitcast %"class.std::basic_istream"* %5 to i8**
  %7 = load i8*, i8** %6, align 8, !tbaa !5
  %8 = getelementptr i8, i8* %7, i64 -24
  %9 = bitcast i8* %8 to i64*
  %10 = load i64, i64* %9, align 8
  %11 = bitcast %"class.std::basic_istream"* %5 to i8*
  %12 = add nsw i64 %10, 32
  %13 = getelementptr inbounds i8, i8* %11, i64 %12
  %14 = bitcast i8* %13 to i32*
  %15 = load i32, i32* %14, align 8, !tbaa !8
  %16 = and i32 %15, 5
  %17 = icmp ne i32 %16, 0
  %18 = load i32, i32* %2, align 4
  %19 = icmp eq i32 %18, -1
  %20 = select i1 %17, i1 true, i1 %19
  br i1 %20, label %167, label %21

21:                                               ; preds = %0, %147
  %22 = phi i32 [ %164, %147 ], [ %18, %0 ]
  %23 = icmp eq i32 %22, 0
  br i1 %23, label %119, label %30

24:                                               ; preds = %30
  %25 = trunc i64 %35 to i32
  %26 = icmp sgt i32 %25, 1
  br i1 %26, label %27, label %119

27:                                               ; preds = %24
  %28 = and i64 %35, 4294967295
  %29 = and i64 %31, 4294967295
  br label %40

30:                                               ; preds = %21, %30
  %31 = phi i64 [ %35, %30 ], [ 0, %21 ]
  %32 = phi i32 [ %37, %30 ], [ %22, %21 ]
  %33 = getelementptr inbounds [16 x i32], [16 x i32]* %1, i64 0, i64 %31
  store i32 %32, i32* %33, align 4, !tbaa !18
  %34 = call nonnull align 8 dereferenceable(16) %"class.std::basic_istream"* @_ZNSirsERi(%"class.std::basic_istream"* nonnull align 8 dereferenceable(16) @_ZSt3cin, i32* nonnull align 4 dereferenceable(4) %2)
  %35 = add nuw nsw i64 %31, 1
  %36 = icmp ugt i64 %31, 14
  %37 = load i32, i32* %2, align 4
  %38 = icmp eq i32 %37, 0
  %39 = select i1 %36, i1 true, i1 %38
  br i1 %39, label %24, label %30, !llvm.loop !19

40:                                               ; preds = %27, %114
  %41 = phi i64 [ 0, %27 ], [ %116, %114 ]
  %42 = phi i32 [ %25, %27 ], [ %117, %114 ]
  %43 = phi i32 [ 0, %27 ], [ %115, %114 ]
  %44 = sub nsw i64 %35, %41
  %45 = and i64 %44, 4294967295
  %46 = add nsw i64 %45, -1
  %47 = sub nsw i64 %28, %41
  %48 = icmp sgt i64 %47, 1
  br i1 %48, label %49, label %114

49:                                               ; preds = %40
  %50 = getelementptr inbounds [16 x i32], [16 x i32]* %1, i64 0, i64 %41
  %51 = load i32, i32* %50, align 4, !tbaa !18
  %52 = shl nsw i32 %51, 1
  %53 = zext i32 %42 to i64
  %54 = icmp ult i64 %46, 8
  br i1 %54, label %97, label %55

55:                                               ; preds = %49
  %56 = and i64 %46, -8
  %57 = or i64 %56, 1
  %58 = insertelement <4 x i32> <i32 poison, i32 0, i32 0, i32 0>, i32 %43, i32 0
  %59 = insertelement <4 x i32> poison, i32 %51, i32 0
  %60 = shufflevector <4 x i32> %59, <4 x i32> poison, <4 x i32> zeroinitializer
  %61 = insertelement <4 x i32> poison, i32 %51, i32 0
  %62 = shufflevector <4 x i32> %61, <4 x i32> poison, <4 x i32> zeroinitializer
  %63 = insertelement <4 x i32> poison, i32 %52, i32 0
  %64 = shufflevector <4 x i32> %63, <4 x i32> poison, <4 x i32> zeroinitializer
  %65 = insertelement <4 x i32> poison, i32 %52, i32 0
  %66 = shufflevector <4 x i32> %65, <4 x i32> poison, <4 x i32> zeroinitializer
  br label %67

67:                                               ; preds = %67, %55
  %68 = phi i64 [ 0, %55 ], [ %91, %67 ]
  %69 = phi <4 x i32> [ %58, %55 ], [ %89, %67 ]
  %70 = phi <4 x i32> [ zeroinitializer, %55 ], [ %90, %67 ]
  %71 = or i64 %68, 1
  %72 = add nuw nsw i64 %71, %41
  %73 = getelementptr inbounds [16 x i32], [16 x i32]* %1, i64 0, i64 %72
  %74 = bitcast i32* %73 to <4 x i32>*
  %75 = load <4 x i32>, <4 x i32>* %74, align 4, !tbaa !18
  %76 = getelementptr inbounds i32, i32* %73, i64 4
  %77 = bitcast i32* %76 to <4 x i32>*
  %78 = load <4 x i32>, <4 x i32>* %77, align 4, !tbaa !18
  %79 = shl nsw <4 x i32> %75, <i32 1, i32 1, i32 1, i32 1>
  %80 = shl nsw <4 x i32> %78, <i32 1, i32 1, i32 1, i32 1>
  %81 = icmp eq <4 x i32> %60, %79
  %82 = icmp eq <4 x i32> %62, %80
  %83 = icmp eq <4 x i32> %75, %64
  %84 = icmp eq <4 x i32> %78, %66
  %85 = select <4 x i1> %81, <4 x i1> <i1 true, i1 true, i1 true, i1 true>, <4 x i1> %83
  %86 = select <4 x i1> %82, <4 x i1> <i1 true, i1 true, i1 true, i1 true>, <4 x i1> %84
  %87 = zext <4 x i1> %85 to <4 x i32>
  %88 = zext <4 x i1> %86 to <4 x i32>
  %89 = add <4 x i32> %69, %87
  %90 = add <4 x i32> %70, %88
  %91 = add nuw i64 %68, 8
  %92 = icmp eq i64 %91, %56
  br i1 %92, label %93, label %67, !llvm.loop !21

93:                                               ; preds = %67
  %94 = add <4 x i32> %90, %89
  %95 = call i32 @llvm.vector.reduce.add.v4i32(<4 x i32> %94)
  %96 = icmp eq i64 %46, %56
  br i1 %96, label %114, label %97

97:                                               ; preds = %49, %93
  %98 = phi i64 [ 1, %49 ], [ %57, %93 ]
  %99 = phi i32 [ %43, %49 ], [ %95, %93 ]
  br label %100

100:                                              ; preds = %97, %100
  %101 = phi i64 [ %112, %100 ], [ %98, %97 ]
  %102 = phi i32 [ %111, %100 ], [ %99, %97 ]
  %103 = add nuw nsw i64 %101, %41
  %104 = getelementptr inbounds [16 x i32], [16 x i32]* %1, i64 0, i64 %103
  %105 = load i32, i32* %104, align 4, !tbaa !18
  %106 = shl nsw i32 %105, 1
  %107 = icmp eq i32 %51, %106
  %108 = icmp eq i32 %105, %52
  %109 = select i1 %107, i1 true, i1 %108
  %110 = zext i1 %109 to i32
  %111 = add nsw i32 %102, %110
  %112 = add nuw nsw i64 %101, 1
  %113 = icmp eq i64 %112, %53
  br i1 %113, label %114, label %100, !llvm.loop !23

114:                                              ; preds = %100, %93, %40
  %115 = phi i32 [ %43, %40 ], [ %95, %93 ], [ %111, %100 ]
  %116 = add nuw nsw i64 %41, 1
  %117 = add nsw i32 %42, -1
  %118 = icmp eq i64 %116, %29
  br i1 %118, label %119, label %40, !llvm.loop !25

119:                                              ; preds = %114, %21, %24
  %120 = phi i32 [ 0, %24 ], [ 0, %21 ], [ %115, %114 ]
  %121 = call nonnull align 8 dereferenceable(8) %"class.std::basic_ostream"* @_ZNSolsEi(%"class.std::basic_ostream"* nonnull align 8 dereferenceable(8) @_ZSt4cout, i32 %120)
  %122 = bitcast %"class.std::basic_ostream"* %121 to i8**
  %123 = load i8*, i8** %122, align 8, !tbaa !5
  %124 = getelementptr i8, i8* %123, i64 -24
  %125 = bitcast i8* %124 to i64*
  %126 = load i64, i64* %125, align 8
  %127 = bitcast %"class.std::basic_ostream"* %121 to i8*
  %128 = add nsw i64 %126, 240
  %129 = getelementptr inbounds i8, i8* %127, i64 %128
  %130 = bitcast i8* %129 to %"class.std::ctype"**
  %131 = load %"class.std::ctype"*, %"class.std::ctype"** %130, align 8, !tbaa !26
  %132 = icmp eq %"class.std::ctype"* %131, null
  br i1 %132, label %133, label %134

133:                                              ; preds = %119
  call void @_ZSt16__throw_bad_castv() #9
  unreachable

134:                                              ; preds = %119
  %135 = getelementptr inbounds %"class.std::ctype", %"class.std::ctype"* %131, i64 0, i32 8
  %136 = load i8, i8* %135, align 8, !tbaa !29
  %137 = icmp eq i8 %136, 0
  br i1 %137, label %141, label %138

138:                                              ; preds = %134
  %139 = getelementptr inbounds %"class.std::ctype", %"class.std::ctype"* %131, i64 0, i32 9, i64 10
  %140 = load i8, i8* %139, align 1, !tbaa !31
  br label %147

141:                                              ; preds = %134
  call void @_ZNKSt5ctypeIcE13_M_widen_initEv(%"class.std::ctype"* nonnull align 8 dereferenceable(570) %131)
  %142 = bitcast %"class.std::ctype"* %131 to i8 (%"class.std::ctype"*, i8)***
  %143 = load i8 (%"class.std::ctype"*, i8)**, i8 (%"class.std::ctype"*, i8)*** %142, align 8, !tbaa !5
  %144 = getelementptr inbounds i8 (%"class.std::ctype"*, i8)*, i8 (%"class.std::ctype"*, i8)** %143, i64 6
  %145 = load i8 (%"class.std::ctype"*, i8)*, i8 (%"class.std::ctype"*, i8)** %144, align 8
  %146 = call signext i8 %145(%"class.std::ctype"* nonnull align 8 dereferenceable(570) %131, i8 signext 10)
  br label %147

147:                                              ; preds = %138, %141
  %148 = phi i8 [ %140, %138 ], [ %146, %141 ]
  %149 = call nonnull align 8 dereferenceable(8) %"class.std::basic_ostream"* @_ZNSo3putEc(%"class.std::basic_ostream"* nonnull align 8 dereferenceable(8) %121, i8 signext %148)
  %150 = call nonnull align 8 dereferenceable(8) %"class.std::basic_ostream"* @_ZNSo5flushEv(%"class.std::basic_ostream"* nonnull align 8 dereferenceable(8) %149)
  %151 = call nonnull align 8 dereferenceable(16) %"class.std::basic_istream"* @_ZNSirsERi(%"class.std::basic_istream"* nonnull align 8 dereferenceable(16) @_ZSt3cin, i32* nonnull align 4 dereferenceable(4) %2)
  %152 = bitcast %"class.std::basic_istream"* %151 to i8**
  %153 = load i8*, i8** %152, align 8, !tbaa !5
  %154 = getelementptr i8, i8* %153, i64 -24
  %155 = bitcast i8* %154 to i64*
  %156 = load i64, i64* %155, align 8
  %157 = bitcast %"class.std::basic_istream"* %151 to i8*
  %158 = add nsw i64 %156, 32
  %159 = getelementptr inbounds i8, i8* %157, i64 %158
  %160 = bitcast i8* %159 to i32*
  %161 = load i32, i32* %160, align 8, !tbaa !8
  %162 = and i32 %161, 5
  %163 = icmp ne i32 %162, 0
  %164 = load i32, i32* %2, align 4
  %165 = icmp eq i32 %164, -1
  %166 = select i1 %163, i1 true, i1 %165
  br i1 %166, label %167, label %21, !llvm.loop !32

167:                                              ; preds = %147, %0
  call void @llvm.lifetime.end.p0i8(i64 4, i8* nonnull %4) #8
  call void @llvm.lifetime.end.p0i8(i64 64, i8* nonnull %3) #8
  ret i32 0
}

; Function Attrs: argmemonly mustprogress nofree nosync nounwind willreturn
declare void @llvm.lifetime.start.p0i8(i64 immarg, i8* nocapture) #4

declare nonnull align 8 dereferenceable(16) %"class.std::basic_istream"* @_ZNSirsERi(%"class.std::basic_istream"* nonnull align 8 dereferenceable(16), i32* nonnull align 4 dereferenceable(4)) local_unnamed_addr #0

declare nonnull align 8 dereferenceable(8) %"class.std::basic_ostream"* @_ZNSolsEi(%"class.std::basic_ostream"* nonnull align 8 dereferenceable(8), i32) local_unnamed_addr #0

; Function Attrs: argmemonly mustprogress nofree nosync nounwind willreturn
declare void @llvm.lifetime.end.p0i8(i64 immarg, i8* nocapture) #4

declare nonnull align 8 dereferenceable(8) %"class.std::basic_ostream"* @_ZNSo3putEc(%"class.std::basic_ostream"* nonnull align 8 dereferenceable(8), i8 signext) local_unnamed_addr #0

declare nonnull align 8 dereferenceable(8) %"class.std::basic_ostream"* @_ZNSo5flushEv(%"class.std::basic_ostream"* nonnull align 8 dereferenceable(8)) local_unnamed_addr #0

; Function Attrs: noreturn
declare void @_ZSt16__throw_bad_castv() local_unnamed_addr #5

declare void @_ZNKSt5ctypeIcE13_M_widen_initEv(%"class.std::ctype"* nonnull align 8 dereferenceable(570)) local_unnamed_addr #0

; Function Attrs: sspstrong uwtable
define internal void @_GLOBAL__sub_I_1393.cpp() #6 section ".text.startup" {
  tail call void @_ZNSt8ios_base4InitC1Ev(%"class.std::ios_base::Init"* nonnull align 1 dereferenceable(1) @_ZStL8__ioinit)
  %1 = tail call i32 @__cxa_atexit(void (i8*)* bitcast (void (%"class.std::ios_base::Init"*)* @_ZNSt8ios_base4InitD1Ev to void (i8*)*), i8* getelementptr inbounds (%"class.std::ios_base::Init", %"class.std::ios_base::Init"* @_ZStL8__ioinit, i64 0, i32 0), i8* nonnull @__dso_handle) #8
  ret void
}

; Function Attrs: nofree nosync nounwind readnone willreturn
declare i32 @llvm.vector.reduce.add.v4i32(<4 x i32>) #7


!llvm.module.flags = !{!0, !1, !2, !3}
!llvm.ident = !{!4}

!0 = !{i32 1, !"wchar_size", i32 4}
!1 = !{i32 7, !"PIC Level", i32 2}
!2 = !{i32 7, !"PIE Level", i32 2}
!3 = !{i32 7, !"uwtable", i32 1}
!4 = !{!"clang version 13.0.0"}
!5 = !{!6, !6, i64 0}
!6 = !{!"vtable pointer", !7, i64 0}
!7 = !{!"Simple C++ TBAA"}
!8 = !{!9, !13, i64 32}
!9 = !{!"_ZTSSt8ios_base", !10, i64 8, !10, i64 16, !12, i64 24, !13, i64 28, !13, i64 32, !14, i64 40, !15, i64 48, !11, i64 64, !16, i64 192, !14, i64 200, !17, i64 208}
!10 = !{!"long", !11, i64 0}
!11 = !{!"omnipotent char", !7, i64 0}
!12 = !{!"_ZTSSt13_Ios_Fmtflags", !11, i64 0}
!13 = !{!"_ZTSSt12_Ios_Iostate", !11, i64 0}
!14 = !{!"any pointer", !11, i64 0}
!15 = !{!"_ZTSNSt8ios_base6_WordsE", !14, i64 0, !10, i64 8}
!16 = !{!"int", !11, i64 0}
!17 = !{!"_ZTSSt6locale", !14, i64 0}
!18 = !{!16, !16, i64 0}
!19 = distinct !{!19, !20}
!20 = !{!"llvm.loop.mustprogress"}
!21 = distinct !{!21, !20, !22}
!22 = !{!"llvm.loop.isvectorized", i32 1}
!23 = distinct !{!23, !20, !24, !22}
!24 = !{!"llvm.loop.unroll.runtime.disable"}
!25 = distinct !{!25, !20}
!26 = !{!27, !14, i64 240}
!27 = !{!"_ZTSSt9basic_iosIcSt11char_traitsIcEE", !14, i64 216, !11, i64 224, !28, i64 225, !14, i64 232, !14, i64 240, !14, i64 248, !14, i64 256}
!28 = !{!"bool", !11, i64 0}
!29 = !{!30, !11, i64 56}
!30 = !{!"_ZTSSt5ctypeIcE", !14, i64 16, !28, i64 24, !14, i64 32, !14, i64 40, !14, i64 48, !11, i64 56, !11, i64 57, !11, i64 313, !11, i64 569}
!31 = !{!11, !11, i64 0}
!32 = distinct !{!32, !20}
